Certificate:
    Data:
        Version: 3 (0x2)
        Serial Number:
            a7:c4:f6:ae:e2:92:b6:bf
        Signature Algorithm: sha256WithRSAEncryption
        Issuer: C=RU, L=Moscow, O=Parallels Holdings Ltd, OU=APS/emailAddress=maximk@parallels.com
        Validity
            Not Before: Apr 25 20:32:11 2016 GMT
            Not After : Apr 25 20:32:11 2017 GMT
        Subject: C=US, O=Fast Lane Clouds, CN=carlosbpaiva@gmail.com/emailAddress=carlosbpaiva@gmail.com
        Subject Public Key Info:
            Public Key Algorithm: rsaEncryption
                Public-Key: (2048 bit)
                Modulus:
                    00:c7:53:2b:ac:f5:13:8f:d1:89:b7:d3:ae:87:c0:
                    49:13:85:e1:16:bc:11:87:e9:67:ed:c2:e2:33:32:
                    e9:57:b1:9d:e1:f5:be:92:71:5f:8b:61:6c:d1:bd:
                    b0:5a:4a:8a:e4:1d:5e:e4:b2:a7:5a:45:e0:cb:85:
                    19:0b:de:c0:9f:87:e8:25:b4:79:7a:e3:9f:7c:85:
                    46:ad:3b:4a:8a:34:c4:cd:da:05:76:9a:15:b5:ea:
                    76:1d:40:2d:1c:7f:8c:5f:33:6a:60:1d:55:b8:cc:
                    c6:e6:b4:eb:56:02:b2:13:8e:e5:fe:e4:bc:90:fd:
                    90:c6:2b:07:3d:cf:7a:84:56:d7:cb:4e:85:16:eb:
                    78:55:5c:aa:e4:68:e8:a4:0c:ad:85:48:8e:90:eb:
                    d5:ca:95:5a:77:0e:72:0b:98:2f:a0:93:78:0e:17:
                    11:1f:bb:f4:e1:7f:9f:e3:a6:19:ce:b7:e5:dd:41:
                    e0:67:27:19:ab:0e:8b:06:38:6a:36:67:e8:93:6f:
                    ce:97:5f:76:e7:a5:da:0b:3a:bb:64:4e:4f:40:52:
                    88:46:4b:76:d1:45:e4:9b:da:06:88:47:5c:cf:8c:
                    65:21:61:ec:cd:22:b7:5a:d0:48:16:85:51:cd:c4:
                    01:f4:c0:62:ef:b9:1e:75:b4:b7:56:f6:bc:15:5e:
                    50:b3
                Exponent: 65537 (0x10001)
        X509v3 extensions:
            X509v3 Basic Constraints: critical
                CA:FALSE
            X509v3 Key Usage: critical
                Digital Signature, Key Encipherment
            X509v3 Subject Key Identifier: 
                D0:DE:43:BB:E5:F4:D4:C0:44:1F:26:5D:63:EB:B0:B5:3E:96:5B:71
            X509v3 Authority Key Identifier: 
                keyid:D0:68:1D:97:4C:8D:49:26:1E:AA:E1:A0:0E:0D:6D:47:24:A3:E5:9B

            Authority Information Access: 
                CA Issuers - URI:http://www.apsstandard.org/ca/ca.pem

            X509v3 CRL Distribution Points: 

                Full Name:
                  URI:http://www.apsstandard.org/ca/issuing_ca.crl

            X509v3 Certificate Policies: 
                Policy: parallels_ext_basicCPS
                  CPS: http://www.parallels.net/ca/parallels_cps.html
                  User Notice:
                    Organization: Parallels Holdings, ltd.
                    Number: 1
                    Explicit Text: External Basic Certificaton Practice Statement
                Policy: apsvpnclient
                  User Notice:
                    Organization: Parallels Holdings, ltd.
                    Number: 1
                    Explicit Text: APS VPN Client Certificate Policy

            X509v3 Extended Key Usage: 
                TLS Web Client Authentication
    Signature Algorithm: sha256WithRSAEncryption
        54:47:cf:9a:eb:0c:75:cd:70:b3:a9:b9:ff:8b:ab:cd:72:d8:
        89:25:5a:bd:57:7a:a2:6e:0f:a4:c6:f8:81:8a:94:4c:48:fb:
        32:57:45:51:d3:90:40:de:9a:fa:a9:fb:10:0b:a0:f9:96:c1:
        f8:f3:7a:86:ad:3a:e9:e9:7a:b4:7a:e7:23:41:ce:ff:47:28:
        4f:96:6d:72:74:d8:76:db:01:e7:62:28:d7:c8:d0:6a:3d:e9:
        92:77:d2:43:08:d8:c6:cd:2b:34:49:3a:8b:37:44:a8:ef:c0:
        d2:f0:d0:5b:a5:ff:b2:0e:c9:de:2e:93:da:92:1d:7e:da:51:
        d8:df:2c:e9:86:63:c4:8d:54:f8:87:5a:e9:2d:a8:28:8f:19:
        05:cc:44:e6:e1:1b:15:bd:92:89:21:ec:0c:37:82:16:a2:5a:
        b2:6d:49:e8:37:6e:67:9c:3e:29:bb:66:30:0d:b2:21:c0:74:
        19:c6:71:b0:10:9c:a6:d7:b5:bf:17:7e:58:36:ea:6b:fc:7b:
        3a:7a:1c:39:a7:09:80:9e:f6:64:90:ca:38:c7:a2:9f:dc:a7:
        48:dd:ab:7d:c1:f7:0f:92:52:43:67:ae:5d:1b:d7:83:b5:74:
        f3:ef:15:f9:b7:70:6b:23:33:6c:06:d0:1a:1b:90:ca:37:53:
        31:76:5c:ca:14:05:e2:55:77:29:5f:b6:c6:ba:cb:3d:cb:6c:
        e7:e5:53:70:0d:7c:ed:5a:f1:1c:a7:79:96:a2:a9:63:bf:eb:
        52:51:ab:c0:54:f1:db:79:63:d2:f7:2e:9f:56:ff:dc:a1:e5:
        d0:5e:d3:64:a7:e1:0d:73:cf:62:47:fd:be:5a:f4:ff:cf:fa:
        86:e9:66:69:a3:af:37:fd:c9:90:fd:6a:c0:34:5a:69:28:fe:
        2c:db:e3:2c:50:20:af:ca:82:6b:bb:fd:fc:3b:34:ef:dc:c5:
        5d:5f:ba:15:53:ed:a9:25:24:c9:4d:e6:b3:e3:99:78:16:f5:
        5a:f9:96:e1:a6:33:1f:76:dc:40:fd:2f:d9:04:8a:dd:64:ab:
        7e:78:db:e4:72:c5:56:45:7c:df:0f:63:e6:4e:d7:82:cb:93:
        bd:53:9a:37:93:e0:f0:55:b3:4e:46:e7:20:58:c4:08:a8:f7:
        6f:e7:ea:58:2e:57:ba:3f:45:db:4d:1d:a3:15:dc:e3:04:26:
        9e:77:26:ff:da:1d:06:70:de:35:04:6a:4c:d9:b4:f4:ea:74:
        6c:b5:29:b6:ce:51:7e:26:5e:a0:be:0b:2b:3c:83:80:a4:30:
        4d:13:cc:be:1b:77:07:6d:f2:f6:87:77:c0:86:7e:56:9d:5e:
        cc:8b:f5:91:2f:29:fb:d1
-----BEGIN CERTIFICATE-----
MIIGhzCCBG+gAwIBAgIJAKfE9q7ikra/MA0GCSqGSIb3DQEBCwUAMHIxCzAJBgNV
BAYTAlJVMQ8wDQYDVQQHDAZNb3Njb3cxHzAdBgNVBAoMFlBhcmFsbGVscyBIb2xk
aW5ncyBMdGQxDDAKBgNVBAsMA0FQUzEjMCEGCSqGSIb3DQEJARYUbWF4aW1rQHBh
cmFsbGVscy5jb20wHhcNMTYwNDI1MjAzMjExWhcNMTcwNDI1MjAzMjExWjBwMQsw
CQYDVQQGEwJVUzEZMBcGA1UECgwQRmFzdCBMYW5lIENsb3VkczEfMB0GA1UEAwwW
Y2FybG9zYnBhaXZhQGdtYWlsLmNvbTElMCMGCSqGSIb3DQEJARYWY2FybG9zYnBh
aXZhQGdtYWlsLmNvbTCCASIwDQYJKoZIhvcNAQEBBQADggEPADCCAQoCggEBAMdT
K6z1E4/RibfTrofASROF4Ra8EYfpZ+3C4jMy6VexneH1vpJxX4thbNG9sFpKiuQd
XuSyp1pF4MuFGQvewJ+H6CW0eXrjn3yFRq07Soo0xM3aBXaaFbXqdh1ALRx/jF8z
amAdVbjMxua061YCshOO5f7kvJD9kMYrBz3PeoRW18tOhRbreFVcquRo6KQMrYVI
jpDr1cqVWncOcguYL6CTeA4XER+79OF/n+OmGc635d1B4GcnGasOiwY4ajZn6JNv
zpdfduel2gs6u2ROT0BSiEZLdtFF5JvaBohHXM+MZSFh7M0it1rQSBaFUc3EAfTA
Yu+5HnW0t1b2vBVeULMCAwEAAaOCAiAwggIcMAwGA1UdEwEB/wQCMAAwDgYDVR0P
AQH/BAQDAgWgMB0GA1UdDgQWBBTQ3kO75fTUwEQfJl1j67C1PpZbcTAfBgNVHSME
GDAWgBTQaB2XTI1JJh6q4aAODW1HJKPlmzBABggrBgEFBQcBAQQ0MDIwMAYIKwYB
BQUHMAKGJGh0dHA6Ly93d3cuYXBzc3RhbmRhcmQub3JnL2NhL2NhLnBlbTA9BgNV
HR8ENjA0MDKgMKAuhixodHRwOi8vd3d3LmFwc3N0YW5kYXJkLm9yZy9jYS9pc3N1
aW5nX2NhLmNybDCCASQGA1UdIASCARswggEXMIGuBg4rBgEEAYHMO4N9AgIBATCB
mzA6BggrBgEFBQcCARYuaHR0cDovL3d3dy5wYXJhbGxlbHMubmV0L2NhL3BhcmFs
bGVsc19jcHMuaHRtbDBdBggrBgEFBQcCAjBRMB8aGFBhcmFsbGVscyBIb2xkaW5n
cywgbHRkLjADAgEBGi5FeHRlcm5hbCBCYXNpYyBDZXJ0aWZpY2F0b24gUHJhY3Rp
Y2UgU3RhdGVtZW50MGQGDisGAQQBgcw7g30CAmQBMFIwUAYIKwYBBQUHAgIwRDAf
GhhQYXJhbGxlbHMgSG9sZGluZ3MsIGx0ZC4wAwIBARohQVBTIFZQTiBDbGllbnQg
Q2VydGlmaWNhdGUgUG9saWN5MBMGA1UdJQQMMAoGCCsGAQUFBwMCMA0GCSqGSIb3
DQEBCwUAA4ICAQBUR8+a6wx1zXCzqbn/i6vNctiJJVq9V3qibg+kxviBipRMSPsy
V0VR05BA3pr6qfsQC6D5lsH483qGrTrp6Xq0eucjQc7/RyhPlm1ydNh22wHnYijX
yNBqPemSd9JDCNjGzSs0STqLN0So78DS8NBbpf+yDsneLpPakh1+2lHY3yzphmPE
jVT4h1rpLagojxkFzETm4RsVvZKJIewMN4IWolqybUnoN25nnD4pu2YwDbIhwHQZ
xnGwEJym17W/F35YNupr/Hs6ehw5pwmAnvZkkMo4x6Kf3KdI3at9wfcPklJDZ65d
G9eDtXTz7xX5t3BrIzNsBtAaG5DKN1MxdlzKFAXiVXcpX7bGuss9y2zn5VNwDXzt
WvEcp3mWoqljv+tSUavAVPHbeWPS9y6fVv/coeXQXtNkp+ENc89iR/2+WvT/z/qG
6WZpo683/cmQ/WrANFppKP4s2+MsUCCvyoJru/38OzTv3MVdX7oVU+2pJSTJTeaz
45l4FvVa+ZbhpjMfdtxA/S/ZBIrdZKt+eNvkcsVWRXzfD2PmTteCy5O9U5o3k+Dw
VbNORucgWMQIqPdv5+pYLle6P0XbTR2jFdzjBCaedyb/2h0GcN41BGpM2bT06nRs
tSm2zlF+Jl6gvgsrPIOApDBNE8y+G3cHbfL2h3fAhn5WnV7Mi/WRLyn70Q==
-----END CERTIFICATE-----
