Certificate:
    Data:
        Version: 3 (0x2)
        Serial Number:
            a7:c4:f6:ae:e2:92:ae:dc
        Signature Algorithm: sha256WithRSAEncryption
        Issuer: O=Parallels Holdings Ltd, OU=IT/emailAddress=admins@parallels.net, C=US
        Validity
            Not Before: Jul  5 19:38:25 2013 GMT
            Not After : Jul  1 19:38:25 2028 GMT
        Subject: O=Parallels Holdings Ltd, OU=IT/emailAddress=admins@parallels.net, C=US
        Subject Public Key Info:
            Public Key Algorithm: rsaEncryption
                Public-Key: (4096 bit)
                Modulus:
                    00:d3:c5:4c:a4:76:be:2b:b4:9b:32:84:e6:c1:9a:
                    31:c2:c8:e8:ec:c9:47:43:e3:e4:ba:85:3f:71:2c:
                    98:65:94:42:3a:02:6c:db:84:19:99:b3:8f:fa:72:
                    da:8d:d5:1a:ad:7c:e9:43:94:14:ff:3c:60:dd:fb:
                    20:45:d4:7d:05:e4:7c:cf:d8:f4:ce:e6:cb:8f:43:
                    e3:d0:1b:0d:b6:db:10:90:ec:ad:bc:79:60:cf:a3:
                    59:b3:a7:63:70:1f:b9:6b:8f:7e:dc:5b:f2:70:c8:
                    bd:4a:37:d0:13:70:23:cf:0e:50:67:2d:db:2a:6d:
                    31:88:33:e7:23:71:c5:ba:e3:75:d2:aa:54:8d:29:
                    d6:27:3e:33:71:f3:4c:98:ae:ba:a7:87:7d:44:bd:
                    fb:76:2c:32:42:42:15:0e:3e:b3:d2:f3:97:bb:7f:
                    23:ac:e5:77:00:aa:52:27:15:8d:82:b4:cc:3c:77:
                    6f:be:22:64:c3:f4:28:36:42:a7:89:9b:bd:de:dd:
                    f7:6a:91:64:a4:74:c5:2d:00:88:97:64:f3:8e:f8:
                    8b:1e:b7:bc:e6:6c:c6:fe:09:9a:e9:d4:a9:fd:7e:
                    b0:6b:1e:66:08:05:63:53:ea:8d:f8:93:9f:df:2a:
                    3a:61:e5:75:77:49:9a:31:8b:e1:a3:96:ff:99:af:
                    7d:08:88:2a:df:bc:61:ba:c4:d0:16:6d:b6:1b:0f:
                    18:bd:5d:97:40:54:af:c1:45:8f:3b:35:e8:6c:4c:
                    e9:4d:7b:ab:2d:8b:c3:54:90:b5:96:a6:fd:c3:fc:
                    69:cd:70:2c:39:ca:fb:26:5a:38:01:6b:f3:55:d8:
                    68:1a:ea:e6:d7:b3:0b:56:c2:da:12:b9:79:87:cc:
                    73:a3:25:ee:e1:e4:1b:f2:fe:42:5e:13:55:a9:14:
                    84:bb:1a:c8:04:ea:bc:6f:2f:7e:e8:bb:88:ee:62:
                    07:a8:7e:93:9e:f7:10:f9:67:3f:50:5f:68:4b:32:
                    0f:5c:c6:7e:1e:b2:2c:3d:6d:cf:b6:a7:77:9d:e6:
                    c4:40:32:0d:c6:c2:cf:33:64:b0:45:52:6f:f8:23:
                    5a:34:24:9d:17:b3:cf:70:27:49:64:82:44:0e:42:
                    b8:df:61:57:50:dc:e3:a8:4a:d4:8b:8d:13:40:02:
                    c4:43:3a:b6:34:fb:e9:81:6e:43:13:6e:5f:f0:ad:
                    4c:59:cc:20:36:1b:18:1a:4d:97:12:22:7c:9f:28:
                    f6:3a:92:2d:47:45:77:2e:0d:29:41:25:95:7c:7b:
                    a8:d8:43:28:59:ca:d8:aa:54:e8:b7:0b:8a:72:a7:
                    c4:14:17:d0:f8:c3:6e:0f:6d:f5:10:57:c0:87:b9:
                    cf:ea:7f
                Exponent: 65537 (0x10001)
        X509v3 extensions:
            X509v3 Basic Constraints: critical
                CA:TRUE
            X509v3 Key Usage: critical
                Certificate Sign, CRL Sign
            X509v3 Subject Key Identifier: 
                39:3C:E7:1D:89:3B:72:E7:F6:DA:EB:2C:85:D4:B6:0C:46:A9:40:11
            X509v3 Authority Key Identifier: 
                keyid:39:3C:E7:1D:89:3B:72:E7:F6:DA:EB:2C:85:D4:B6:0C:46:A9:40:11
                DirName:/O=Parallels Holdings Ltd/OU=IT/emailAddress=admins@parallels.net/C=US
                serial:A7:C4:F6:AE:E2:92:AE:DC

            Authority Information Access: 
                CA Issuers - URI:http://www.parallels.net/ca/cainfo.html

            X509v3 CRL Distribution Points: 

                Full Name:
                  URI:http://www.parallels.net/ca/root_ca.crl

            X509v3 Certificate Policies: 
                Policy: parallels_ext_basicCPS
                  CPS: http://www.parallels.net/ca/parallels_cps.html
                  User Notice:
                    Explicit Text: Parallels Holdings, ltd. External Basic Certificaton Practice Statement
                Policy: parallels_ext_basicCA
                  User Notice:
                    Explicit Text: Parallels Holdings, ltd. External Basic Certificate Policy

    Signature Algorithm: sha256WithRSAEncryption
        1b:9d:6a:42:78:52:f7:53:77:90:c2:3e:f4:f6:f4:c3:80:c7:
        53:b2:e6:51:28:79:77:fa:b8:20:2e:cb:b5:0b:3e:c3:d5:03:
        bd:86:9c:6f:75:f5:4e:34:ed:58:54:4e:44:97:53:b6:5e:16:
        81:42:3d:b1:09:9a:20:75:7a:12:65:9f:bb:27:6c:7b:12:1a:
        e1:48:1d:23:42:09:d4:83:2b:6d:d2:2d:44:de:64:3a:bc:78:
        2c:30:6b:14:93:99:81:8b:76:ae:01:76:0f:c8:6d:88:b1:92:
        79:f7:61:ec:63:17:3c:24:2a:0f:b5:28:d6:80:48:98:3c:0f:
        69:35:ea:ae:b1:a0:40:38:1f:78:40:89:20:6f:f5:b4:b7:4e:
        f5:02:28:09:5a:55:3f:55:f0:52:84:56:f0:75:95:15:9d:a4:
        4f:db:63:54:7c:a8:9a:24:cd:71:1f:1c:ae:80:b2:5b:39:85:
        38:d8:83:87:a0:10:99:18:61:13:4c:be:58:a1:7f:cd:52:73:
        eb:a2:ac:25:12:3d:7a:6b:83:be:ed:ea:48:d9:a2:fc:bd:84:
        ff:68:20:c3:92:16:f8:0b:89:b9:48:8e:bd:dd:30:5e:bb:ca:
        8e:e7:da:fe:3f:f9:e8:43:ad:5d:c1:90:40:af:7b:03:31:03:
        36:3d:4c:ec:2b:36:47:a8:e6:e7:92:73:5b:01:79:2c:05:3a:
        6e:63:e5:b9:9e:9f:65:a7:19:64:43:be:9f:ab:08:58:92:d4:
        1b:41:a9:b3:ba:eb:e6:e8:c7:56:6b:13:4b:86:74:61:58:50:
        f8:ab:d1:85:e2:0f:3a:a5:74:ad:1d:7e:b8:f7:b2:ef:0f:b7:
        ed:e8:cc:80:4b:3b:c8:42:e1:ad:04:34:27:eb:18:ec:f8:56:
        4a:98:60:f7:44:81:3d:cb:8b:0a:7e:a1:41:de:23:91:72:20:
        0b:74:f6:34:ea:80:d2:b1:83:15:b5:4d:64:e9:c1:d5:22:bc:
        a2:b5:07:2b:de:1e:e3:f7:d4:ee:17:ac:6f:70:16:10:14:3c:
        7d:00:f3:95:94:eb:3a:0f:52:ed:d4:d7:61:4d:fa:85:60:22:
        0d:0a:e2:b3:c4:ed:96:0e:d7:d8:8a:e0:81:8b:14:f8:65:70:
        12:6a:08:81:40:9c:ed:c5:74:1b:ec:82:9c:d2:f6:3d:df:74:
        0d:91:87:f5:7f:69:81:c9:50:dd:2d:ae:42:20:de:40:58:30:
        0c:0f:20:4a:cc:12:4a:e0:16:01:cd:e9:df:a2:2a:02:60:18:
        5f:7e:8f:c0:4b:5f:8e:a4:b6:4f:76:f7:29:c1:79:ff:26:ca:
        4d:d5:b0:25:58:6f:43:c9
-----BEGIN CERTIFICATE-----
MIIHtTCCBZ2gAwIBAgIJAKfE9q7ikq7cMA0GCSqGSIb3DQEBCwUAMGAxHzAdBgNV
BAoMFlBhcmFsbGVscyBIb2xkaW5ncyBMdGQxCzAJBgNVBAsMAklUMSMwIQYJKoZI
hvcNAQkBFhRhZG1pbnNAcGFyYWxsZWxzLm5ldDELMAkGA1UEBhMCVVMwHhcNMTMw
NzA1MTkzODI1WhcNMjgwNzAxMTkzODI1WjBgMR8wHQYDVQQKDBZQYXJhbGxlbHMg
SG9sZGluZ3MgTHRkMQswCQYDVQQLDAJJVDEjMCEGCSqGSIb3DQEJARYUYWRtaW5z
QHBhcmFsbGVscy5uZXQxCzAJBgNVBAYTAlVTMIICIjANBgkqhkiG9w0BAQEFAAOC
Ag8AMIICCgKCAgEA08VMpHa+K7SbMoTmwZoxwsjo7MlHQ+PkuoU/cSyYZZRCOgJs
24QZmbOP+nLajdUarXzpQ5QU/zxg3fsgRdR9BeR8z9j0zubLj0Pj0BsNttsQkOyt
vHlgz6NZs6djcB+5a49+3FvycMi9SjfQE3Ajzw5QZy3bKm0xiDPnI3HFuuN10qpU
jSnWJz4zcfNMmK66p4d9RL37diwyQkIVDj6z0vOXu38jrOV3AKpSJxWNgrTMPHdv
viJkw/QoNkKniZu93t33apFkpHTFLQCIl2TzjviLHre85mzG/gma6dSp/X6wax5m
CAVjU+qN+JOf3yo6YeV1d0maMYvho5b/ma99CIgq37xhusTQFm22Gw8YvV2XQFSv
wUWPOzXobEzpTXurLYvDVJC1lqb9w/xpzXAsOcr7Jlo4AWvzVdhoGurm17MLVsLa
Erl5h8xzoyXu4eQb8v5CXhNVqRSEuxrIBOq8by9+6LuI7mIHqH6TnvcQ+Wc/UF9o
SzIPXMZ+HrIsPW3Ptqd3nebEQDINxsLPM2SwRVJv+CNaNCSdF7PPcCdJZIJEDkK4
32FXUNzjqErUi40TQALEQzq2NPvpgW5DE25f8K1MWcwgNhsYGk2XEiJ8nyj2OpIt
R0V3Lg0pQSWVfHuo2EMoWcrYqlTotwuKcqfEFBfQ+MNuD231EFfAh7nP6n8CAwEA
AaOCAnAwggJsMA8GA1UdEwEB/wQFMAMBAf8wDgYDVR0PAQH/BAQDAgEGMB0GA1Ud
DgQWBBQ5POcdiTty5/ba6yyF1LYMRqlAETCBkgYDVR0jBIGKMIGHgBQ5POcdiTty
5/ba6yyF1LYMRqlAEaFkpGIwYDEfMB0GA1UECgwWUGFyYWxsZWxzIEhvbGRpbmdz
IEx0ZDELMAkGA1UECwwCSVQxIzAhBgkqhkiG9w0BCQEWFGFkbWluc0BwYXJhbGxl
bHMubmV0MQswCQYDVQQGEwJVU4IJAKfE9q7ikq7cMEMGCCsGAQUFBwEBBDcwNTAz
BggrBgEFBQcwAoYnaHR0cDovL3d3dy5wYXJhbGxlbHMubmV0L2NhL2NhaW5mby5o
dG1sMDgGA1UdHwQxMC8wLaAroCmGJ2h0dHA6Ly93d3cucGFyYWxsZWxzLm5ldC9j
YS9yb290X2NhLmNybDCCARQGA1UdIASCAQswggEHMIGmBg4rBgEEAYHMO4N9AgIB
ATCBkzA6BggrBgEFBQcCARYuaHR0cDovL3d3dy5wYXJhbGxlbHMubmV0L2NhL3Bh
cmFsbGVsc19jcHMuaHRtbDBVBggrBgEFBQcCAjBJGkdQYXJhbGxlbHMgSG9sZGlu
Z3MsIGx0ZC4gRXh0ZXJuYWwgQmFzaWMgQ2VydGlmaWNhdG9uIFByYWN0aWNlIFN0
YXRlbWVudDBcBg4rBgEEAYHMO4N9AgIBAjBKMEgGCCsGAQUFBwICMDwaOlBhcmFs
bGVscyBIb2xkaW5ncywgbHRkLiBFeHRlcm5hbCBCYXNpYyBDZXJ0aWZpY2F0ZSBQ
b2xpY3kwDQYJKoZIhvcNAQELBQADggIBABudakJ4UvdTd5DCPvT29MOAx1Oy5lEo
eXf6uCAuy7ULPsPVA72GnG919U407VhUTkSXU7ZeFoFCPbEJmiB1ehJln7snbHsS
GuFIHSNCCdSDK23SLUTeZDq8eCwwaxSTmYGLdq4Bdg/IbYixknn3YexjFzwkKg+1
KNaASJg8D2k16q6xoEA4H3hAiSBv9bS3TvUCKAlaVT9V8FKEVvB1lRWdpE/bY1R8
qJokzXEfHK6Asls5hTjYg4egEJkYYRNMvlihf81Sc+uirCUSPXprg77t6kjZovy9
hP9oIMOSFvgLiblIjr3dMF67yo7n2v4/+ehDrV3BkECvewMxAzY9TOwrNkeo5ueS
c1sBeSwFOm5j5bmen2WnGWRDvp+rCFiS1BtBqbO66+box1ZrE0uGdGFYUPir0YXi
DzqldK0dfrj3su8Pt+3ozIBLO8hC4a0ENCfrGOz4VkqYYPdEgT3Liwp+oUHeI5Fy
IAt09jTqgNKxgxW1TWTpwdUivKK1ByveHuP31O4XrG9wFhAUPH0A85WU6zoPUu3U
12FN+oVgIg0K4rPE7ZYO19iK4IGLFPhlcBJqCIFAnO3FdBvsgpzS9j3fdA2Rh/V/
aYHJUN0trkIg3kBYMAwPIErMEkrgFgHN6d+iKgJgGF9+j8BLX46ktk929ynBef8m
yk3VsCVYb0PJ
-----END CERTIFICATE-----
Certificate:
    Data:
        Version: 3 (0x2)
        Serial Number:
            a7:c4:f6:ae:e2:92:ae:dd
        Signature Algorithm: sha256WithRSAEncryption
        Issuer: O=Parallels Holdings Ltd, OU=IT/emailAddress=admins@parallels.net, C=US
        Validity
            Not Before: Jul  5 20:53:32 2013 GMT
            Not After : Jul  3 20:53:32 2023 GMT
        Subject: C=RU, L=Moscow, O=Parallels Holdings Ltd, OU=APS/emailAddress=maximk@parallels.com
        Subject Public Key Info:
            Public Key Algorithm: rsaEncryption
                Public-Key: (4096 bit)
                Modulus:
                    00:a2:df:66:8d:ca:e8:9c:38:32:26:d2:5a:9a:ce:
                    8f:9f:d0:5d:3b:1a:97:27:4f:f6:9e:e5:dc:8d:01:
                    b2:12:c0:46:d2:74:07:cb:4b:ac:33:3e:6e:67:0d:
                    18:fc:75:c8:e9:7b:a0:0d:15:dc:60:9e:ff:a2:bb:
                    f0:b9:bb:35:c4:8f:ef:34:e0:6f:2f:08:2d:e2:f6:
                    f7:27:de:d0:90:eb:2f:15:af:4e:57:bd:18:e9:0b:
                    2a:79:60:d0:30:97:c9:f2:ac:e0:01:c2:ba:0b:7a:
                    cf:55:a9:c2:4b:5d:eb:67:72:1f:4a:e8:6c:81:6c:
                    87:e1:f7:01:74:7b:92:1c:7e:f0:d5:73:e7:e2:6f:
                    cd:a1:3b:e2:01:fb:03:89:77:5b:8f:68:1a:fd:15:
                    cc:d4:70:fc:37:69:b0:1d:3a:64:67:44:75:9b:55:
                    b7:be:6c:5d:ee:56:82:79:49:e3:11:8d:8a:db:6c:
                    3d:b7:16:d7:2b:bd:42:f8:af:2f:ba:d7:56:64:7b:
                    0c:f3:1f:fc:ef:61:4b:00:a4:e6:32:17:cd:57:60:
                    85:42:10:a7:e4:7a:ae:25:78:b8:59:16:82:db:bb:
                    3a:3b:7a:aa:d9:9c:49:73:ee:f8:70:41:9e:3c:5c:
                    45:84:ef:e5:42:ac:98:ed:74:f8:ca:de:24:b0:6c:
                    a6:de:14:d6:ce:12:09:82:ac:eb:a8:42:85:ab:03:
                    44:a6:f9:a1:9b:d8:1a:55:60:13:80:e5:1f:75:1d:
                    d0:72:36:b8:fb:a3:81:35:bf:3b:24:67:06:00:c2:
                    36:a7:f1:cc:bc:4d:93:00:af:82:64:41:5e:54:63:
                    63:93:39:4d:f5:68:51:5e:77:96:08:da:0d:1a:76:
                    dc:ef:70:56:3a:1d:a1:c4:b8:ae:e6:65:3d:31:39:
                    1a:a1:97:0d:f2:5b:99:a0:ee:13:15:3d:b7:8f:66:
                    3e:c7:b9:3a:f1:73:7d:de:47:8a:26:79:43:1f:21:
                    46:ea:ec:5c:b8:5e:75:f8:b2:bd:9f:7c:74:06:b2:
                    f8:a9:db:5a:72:9a:54:9d:f3:d1:0a:b2:e5:b1:e8:
                    ac:65:81:98:5b:23:3b:2a:3e:0f:85:99:93:70:33:
                    ec:1b:c7:a8:67:cb:e4:23:6d:ad:77:4c:9d:b3:8d:
                    f1:93:52:12:0c:e7:9a:5b:0f:1c:6b:dd:8a:80:53:
                    c2:95:2f:c0:f4:29:a4:36:b7:55:20:68:d6:08:38:
                    d9:86:dc:b8:4a:da:79:1b:3c:9f:6f:90:49:ef:fa:
                    90:c1:a1:af:49:bc:ef:ca:74:18:31:48:86:92:72:
                    dd:35:d0:d2:12:a0:ca:2c:0d:11:f3:cd:68:82:f3:
                    bb:d6:a9
                Exponent: 65537 (0x10001)
        X509v3 extensions:
            X509v3 Basic Constraints: critical
                CA:TRUE, pathlen:0
            X509v3 Policy Constraints: critical
                Require Explicit Policy:0
            X509v3 Inhibit Any Policy: 
                0
            X509v3 Key Usage: critical
                Certificate Sign, CRL Sign
            X509v3 Subject Key Identifier: 
                D0:68:1D:97:4C:8D:49:26:1E:AA:E1:A0:0E:0D:6D:47:24:A3:E5:9B
            X509v3 Authority Key Identifier: 
                keyid:39:3C:E7:1D:89:3B:72:E7:F6:DA:EB:2C:85:D4:B6:0C:46:A9:40:11

            Authority Information Access: 
                CA Issuers - URI:http://www.apsstandard.org/ca/ca.pem

            X509v3 CRL Distribution Points: 

                Full Name:
                  URI:http://www.apsstandard.org/ca/root_ca.crl

            X509v3 Certificate Policies: 
                Policy: parallels_ext_basicCPS
                  CPS: http://www.parallels.net/ca/parallels_cps.html
                  User Notice:
                    Explicit Text: Parallels Holdings, ltd. External Basic Certificaton Practice Statement
                Policy: parallels_ext_basicCA
                  User Notice:
                    Explicit Text: Parallels Holdings, ltd. External Basic Certificate Policy
                Policy: apsvpnserver
                  User Notice:
                    Explicit Text: APS VPN Server Certificate Policy
                Policy: apsvpnclient
                  User Notice:
                    Explicit Text: APS VPN Client Certificate Policy

    Signature Algorithm: sha256WithRSAEncryption
        52:eb:33:67:b1:98:2c:46:65:c6:df:49:ea:4a:01:a7:b2:18:
        9b:cd:33:19:d4:e9:51:09:bf:81:6c:4b:ff:ee:e5:f4:b8:a1:
        c3:98:1a:6e:11:5f:f0:b9:31:8d:6f:5b:f6:3c:52:3d:31:1d:
        b1:4c:31:9c:18:20:f7:11:5f:51:77:23:ed:e4:e8:c0:dd:ed:
        59:7e:cc:2a:c0:e8:81:f8:35:11:95:99:89:19:9f:2e:02:63:
        49:73:bf:09:dc:64:f1:b9:8f:5d:6c:f7:d6:41:2e:e2:c8:d5:
        7e:4d:ac:2b:2e:a5:d5:ce:3e:64:35:5a:64:b7:8d:1a:1c:9a:
        4d:63:ea:5b:5a:8a:3d:e0:a8:78:72:50:9e:bb:06:94:bb:1d:
        e9:ea:92:db:3c:4c:98:b9:2a:ac:b3:5a:c3:92:5b:c5:3a:bd:
        05:d1:98:8c:87:7a:ac:b7:f0:ce:df:9f:ce:49:03:bc:77:7a:
        27:5a:5c:5b:be:01:d8:90:2c:3a:40:b9:df:67:6a:6f:b3:93:
        de:ef:bd:57:d7:80:14:d2:b9:d7:a1:8c:c8:05:ef:68:d7:cf:
        34:c5:05:d6:52:d7:4b:4c:64:c0:72:d8:e9:1d:22:6e:b6:ef:
        63:c5:78:88:cb:15:95:5d:5a:04:43:52:87:8f:bd:89:68:79:
        56:8e:e1:68:9a:08:9e:9e:fd:80:69:83:a4:d9:d0:09:06:ff:
        ae:03:90:09:d1:89:22:bb:31:62:c2:5a:51:f3:4f:56:8a:4c:
        10:13:12:d3:dd:2c:fd:61:5a:02:96:50:fb:4b:dc:d6:be:d6:
        89:78:78:14:9d:f3:81:20:56:ab:b0:e7:fb:b4:34:ec:26:71:
        70:66:2c:fd:84:6a:f1:d4:37:97:3c:91:d4:f8:b2:aa:ef:d4:
        dd:2a:f6:09:42:49:90:12:37:52:75:b0:53:0c:50:46:38:d9:
        a6:18:95:28:fa:64:91:19:6b:0e:03:13:28:ca:da:ef:7e:c6:
        4c:2e:9e:c2:00:28:10:b8:d7:ac:63:e7:b2:50:f7:48:e1:bd:
        f0:43:b0:bd:fb:38:d9:10:2c:86:9b:2c:3f:7f:d3:43:d2:59:
        4e:0c:06:67:77:7f:35:2a:92:9d:d8:85:d5:1b:f0:9b:c7:63:
        ec:e9:08:13:16:08:58:27:80:08:14:80:6b:c4:af:f2:1f:2d:
        ea:b7:42:b0:4e:90:d9:2a:11:b7:99:79:5f:0a:2f:de:db:29:
        61:08:80:fa:c9:8a:8b:a5:92:d4:0a:12:0d:4e:00:15:10:86:
        da:04:0d:ed:25:5e:d1:f8:a4:18:c2:96:06:92:c5:80:46:b3:
        d8:38:01:77:0d:9f:07:66
-----BEGIN CERTIFICATE-----
MIIH/DCCBeSgAwIBAgIJAKfE9q7ikq7dMA0GCSqGSIb3DQEBCwUAMGAxHzAdBgNV
BAoMFlBhcmFsbGVscyBIb2xkaW5ncyBMdGQxCzAJBgNVBAsMAklUMSMwIQYJKoZI
hvcNAQkBFhRhZG1pbnNAcGFyYWxsZWxzLm5ldDELMAkGA1UEBhMCVVMwHhcNMTMw
NzA1MjA1MzMyWhcNMjMwNzAzMjA1MzMyWjByMQswCQYDVQQGEwJSVTEPMA0GA1UE
BwwGTW9zY293MR8wHQYDVQQKDBZQYXJhbGxlbHMgSG9sZGluZ3MgTHRkMQwwCgYD
VQQLDANBUFMxIzAhBgkqhkiG9w0BCQEWFG1heGlta0BwYXJhbGxlbHMuY29tMIIC
IjANBgkqhkiG9w0BAQEFAAOCAg8AMIICCgKCAgEAot9mjcronDgyJtJams6Pn9Bd
OxqXJ0/2nuXcjQGyEsBG0nQHy0usMz5uZw0Y/HXI6XugDRXcYJ7/orvwubs1xI/v
NOBvLwgt4vb3J97QkOsvFa9OV70Y6QsqeWDQMJfJ8qzgAcK6C3rPVanCS13rZ3If
SuhsgWyH4fcBdHuSHH7w1XPn4m/NoTviAfsDiXdbj2ga/RXM1HD8N2mwHTpkZ0R1
m1W3vmxd7laCeUnjEY2K22w9txbXK71C+K8vutdWZHsM8x/872FLAKTmMhfNV2CF
QhCn5HquJXi4WRaC27s6O3qq2ZxJc+74cEGePFxFhO/lQqyY7XT4yt4ksGym3hTW
zhIJgqzrqEKFqwNEpvmhm9gaVWATgOUfdR3Qcja4+6OBNb87JGcGAMI2p/HMvE2T
AK+CZEFeVGNjkzlN9WhRXneWCNoNGnbc73BWOh2hxLiu5mU9MTkaoZcN8luZoO4T
FT23j2Y+x7k68XN93keKJnlDHyFG6uxcuF51+LK9n3x0BrL4qdtacppUnfPRCrLl
seisZYGYWyM7Kj4PhZmTcDPsG8eoZ8vkI22td0yds43xk1ISDOeaWw8ca92KgFPC
lS/A9CmkNrdVIGjWCDjZhty4Stp5Gzyfb5BJ7/qQwaGvSbzvynQYMUiGknLdNdDS
EqDKLA0R881ogvO71qkCAwEAAaOCAqUwggKhMBIGA1UdEwEB/wQIMAYBAf8CAQAw
DwYDVR0kAQH/BAUwA4ABADAKBgNVHTYEAwIBADAOBgNVHQ8BAf8EBAMCAQYwHQYD
VR0OBBYEFNBoHZdMjUkmHqrhoA4NbUcko+WbMB8GA1UdIwQYMBaAFDk85x2JO3Ln
9trrLIXUtgxGqUARMEAGCCsGAQUFBwEBBDQwMjAwBggrBgEFBQcwAoYkaHR0cDov
L3d3dy5hcHNzdGFuZGFyZC5vcmcvY2EvY2EucGVtMDoGA1UdHwQzMDEwL6AtoCuG
KWh0dHA6Ly93d3cuYXBzc3RhbmRhcmQub3JnL2NhL3Jvb3RfY2EuY3JsMIIBngYD
VR0gBIIBlTCCAZEwgaYGDisGAQQBgcw7g30CAgEBMIGTMDoGCCsGAQUFBwIBFi5o
dHRwOi8vd3d3LnBhcmFsbGVscy5uZXQvY2EvcGFyYWxsZWxzX2Nwcy5odG1sMFUG
CCsGAQUFBwICMEkaR1BhcmFsbGVscyBIb2xkaW5ncywgbHRkLiBFeHRlcm5hbCBC
YXNpYyBDZXJ0aWZpY2F0b24gUHJhY3RpY2UgU3RhdGVtZW50MFwGDisGAQQBgcw7
g30CAgECMEowSAYIKwYBBQUHAgIwPBo6UGFyYWxsZWxzIEhvbGRpbmdzLCBsdGQu
IEV4dGVybmFsIEJhc2ljIENlcnRpZmljYXRlIFBvbGljeTBDBg4rBgEEAYHMO4N9
AgJkAjAxMC8GCCsGAQUFBwICMCMaIUFQUyBWUE4gU2VydmVyIENlcnRpZmljYXRl
IFBvbGljeTBDBg4rBgEEAYHMO4N9AgJkATAxMC8GCCsGAQUFBwICMCMaIUFQUyBW
UE4gQ2xpZW50IENlcnRpZmljYXRlIFBvbGljeTANBgkqhkiG9w0BAQsFAAOCAgEA
UuszZ7GYLEZlxt9J6koBp7IYm80zGdTpUQm/gWxL/+7l9Lihw5gabhFf8LkxjW9b
9jxSPTEdsUwxnBgg9xFfUXcj7eTowN3tWX7MKsDogfg1EZWZiRmfLgJjSXO/Cdxk
8bmPXWz31kEu4sjVfk2sKy6l1c4+ZDVaZLeNGhyaTWPqW1qKPeCoeHJQnrsGlLsd
6eqS2zxMmLkqrLNaw5JbxTq9BdGYjId6rLfwzt+fzkkDvHd6J1pcW74B2JAsOkC5
32dqb7OT3u+9V9eAFNK516GMyAXvaNfPNMUF1lLXS0xkwHLY6R0ibrbvY8V4iMsV
lV1aBENSh4+9iWh5Vo7haJoInp79gGmDpNnQCQb/rgOQCdGJIrsxYsJaUfNPVopM
EBMS090s/WFaApZQ+0vc1r7WiXh4FJ3zgSBWq7Dn+7Q07CZxcGYs/YRq8dQ3lzyR
1Piyqu/U3Sr2CUJJkBI3UnWwUwxQRjjZphiVKPpkkRlrDgMTKMra737GTC6ewgAo
ELjXrGPnslD3SOG98EOwvfs42RAshpssP3/TQ9JZTgwGZ3d/NSqSndiF1Rvwm8dj
7OkIExYIWCeACBSAa8Sv8h8t6rdCsE6Q2SoRt5l5Xwov3tspYQiA+smKi6WS1AoS
DU4AFRCG2gQN7SVe0fikGMKWBpLFgEaz2DgBdw2fB2Y=
-----END CERTIFICATE-----
