Certificate:
    Data:
        Version: 3 (0x2)
        Serial Number:
            a7:c4:f6:ae:e2:92:b7:46
        Signature Algorithm: sha256WithRSAEncryption
        Issuer: C=RU, L=Moscow, O=Parallels Holdings Ltd, OU=APS/emailAddress=maximk@parallels.com
        Validity
            Not Before: Jul 18 20:27:04 2016 GMT
            Not After : Jul 18 20:27:04 2017 GMT
        Subject: C=US, O=APO, CN=Carlos.Paiva@flts.com.br/emailAddress=Carlos.Paiva@flts.com.br
        Subject Public Key Info:
            Public Key Algorithm: rsaEncryption
                Public-Key: (2048 bit)
                Modulus:
                    00:9c:79:fb:91:9e:c9:7f:96:64:85:28:78:70:d5:
                    76:9c:1a:83:1f:7c:8e:db:7a:b6:ca:85:72:e7:c4:
                    5b:a8:86:1b:33:1b:96:f3:d9:89:24:30:f1:b1:ae:
                    5e:80:35:c4:28:8e:1e:2e:cf:8f:0e:4e:03:8f:72:
                    4d:18:aa:f4:59:dc:47:2a:63:c0:5a:7d:ba:27:dd:
                    c7:98:b4:b7:dc:51:56:2a:2f:a9:63:6b:34:65:d1:
                    de:eb:3f:e7:6d:0f:79:b0:63:72:46:ac:77:40:67:
                    e2:44:76:56:95:36:8f:83:97:08:56:c4:9d:10:e6:
                    1d:51:c3:ef:38:42:0e:d0:50:4c:63:e4:c7:d6:b2:
                    0c:0c:ab:a3:1f:ca:ee:7a:4a:94:b2:1e:e6:aa:a7:
                    be:1c:0e:e3:96:37:a8:97:89:95:ae:f8:ef:e2:35:
                    b8:45:ad:ce:c5:ff:a7:74:11:fe:0f:3e:e0:9f:df:
                    de:50:bf:b9:46:85:ba:98:89:ce:1e:9c:cd:e0:74:
                    0d:da:99:e3:ff:40:52:6e:d8:85:87:9e:b9:df:26:
                    91:3a:84:a8:2f:c7:de:7c:58:3d:46:24:18:5b:73:
                    89:a5:c1:b8:f9:ed:a7:d7:f6:ac:d4:7a:8b:bf:10:
                    e0:7b:0d:6c:4f:c8:12:9e:67:79:27:5c:fd:70:18:
                    ab:c9
                Exponent: 65537 (0x10001)
        X509v3 extensions:
            X509v3 Basic Constraints: critical
                CA:FALSE
            X509v3 Key Usage: critical
                Digital Signature, Key Encipherment
            X509v3 Subject Key Identifier: 
                53:53:8E:85:17:C3:B4:86:06:5F:48:FE:1C:6A:BF:B3:E6:8C:CA:34
            X509v3 Authority Key Identifier: 
                keyid:D0:68:1D:97:4C:8D:49:26:1E:AA:E1:A0:0E:0D:6D:47:24:A3:E5:9B

            Authority Information Access: 
                CA Issuers - URI:http://www.apsstandard.org/ca/ca.pem

            X509v3 CRL Distribution Points: 

                Full Name:
                  URI:http://www.apsstandard.org/ca/issuing_ca.crl

            X509v3 Certificate Policies: 
                Policy: parallels_ext_basicCPS
                  CPS: http://www.parallels.net/ca/parallels_cps.html
                  User Notice:
                    Organization: Parallels Holdings, ltd.
                    Number: 1
                    Explicit Text: External Basic Certificaton Practice Statement
                Policy: apsvpnclient
                  User Notice:
                    Organization: Parallels Holdings, ltd.
                    Number: 1
                    Explicit Text: APS VPN Client Certificate Policy

            X509v3 Extended Key Usage: 
                TLS Web Client Authentication
    Signature Algorithm: sha256WithRSAEncryption
        18:eb:79:eb:1c:02:c2:4b:22:20:97:18:f6:bf:ea:79:77:5d:
        b0:4f:74:49:24:3d:50:8d:05:ef:76:74:f0:63:9e:1e:0f:13:
        ba:87:38:15:7a:dd:ef:42:78:a7:49:4d:ef:f5:f9:6d:9b:74:
        0d:b9:68:e7:5c:12:61:a3:64:3e:a9:6f:38:37:ea:c1:88:33:
        0b:2e:d5:10:e9:a5:f9:ef:c9:c1:5e:d5:9d:a7:6f:ec:1f:9b:
        f9:13:c6:47:41:bf:b4:bc:ae:96:97:cc:d7:df:e3:b8:a0:5c:
        db:54:77:c6:e4:67:a6:32:e9:bb:1e:17:7b:c1:2f:3f:63:b2:
        ea:ae:b2:7b:cd:86:4d:7d:3b:d6:9b:9b:5e:e8:b5:dd:d5:c9:
        7c:5c:ee:23:26:c8:16:26:98:0e:09:04:ef:fa:7c:02:e6:83:
        12:00:b8:e0:cc:5a:49:3c:21:8d:9f:97:76:d6:45:37:39:f9:
        b1:23:42:1f:8b:57:4e:0b:3d:72:2d:df:8d:ff:6a:d2:f4:a7:
        8a:33:f1:a4:23:4c:27:b7:2c:75:97:83:38:80:08:31:b9:7e:
        0f:44:94:79:5e:d4:1f:0a:53:3d:8a:1d:14:e3:34:11:05:f9:
        c0:77:ce:1a:69:98:d8:29:fa:d6:e3:90:ff:2b:39:b8:73:88:
        0c:c4:96:f8:d6:01:fc:f7:74:1b:87:9c:d1:91:b8:94:74:2f:
        fc:fa:36:e5:ea:5d:67:25:91:88:37:38:60:13:45:90:68:fe:
        91:7e:91:a5:25:04:42:b3:a4:ef:b6:fb:a4:e6:9d:15:e7:6d:
        83:8d:0c:f3:5e:7a:a2:55:74:1c:8d:ef:bb:8b:1d:a1:27:5c:
        81:af:ae:39:08:1f:6d:14:25:f1:e7:00:be:dc:a2:1f:d4:a4:
        d9:f5:90:13:84:b4:9e:4f:e0:76:c3:ca:df:66:5b:d4:1e:37:
        a8:ad:56:08:68:7d:06:0f:5e:c3:a4:a5:43:9c:d5:d4:6e:5d:
        45:bc:0f:21:9d:2b:9e:37:2a:de:c9:22:56:04:4d:11:25:b7:
        d8:9a:e4:58:a9:c4:55:68:3c:5a:48:3f:99:b3:c5:39:7b:a2:
        ae:f0:cf:85:44:62:97:10:ee:3f:2c:e5:49:d4:4e:6f:3d:73:
        d0:14:28:18:21:8d:16:02:77:ee:ca:d8:e4:f4:df:b0:5e:85:
        a0:57:43:31:8d:42:75:33:fc:bf:f7:68:22:4f:18:6e:06:38:
        1c:ce:72:fa:d7:0f:be:cf:b9:01:b9:ed:df:63:58:63:60:26:
        86:88:b7:22:98:6b:3b:32:59:00:f8:11:80:ec:fa:0b:73:ce:
        6f:b0:48:9f:3e:b8:dd:e7
-----BEGIN CERTIFICATE-----
MIIGfjCCBGagAwIBAgIJAKfE9q7ikrdGMA0GCSqGSIb3DQEBCwUAMHIxCzAJBgNV
BAYTAlJVMQ8wDQYDVQQHDAZNb3Njb3cxHzAdBgNVBAoMFlBhcmFsbGVscyBIb2xk
aW5ncyBMdGQxDDAKBgNVBAsMA0FQUzEjMCEGCSqGSIb3DQEJARYUbWF4aW1rQHBh
cmFsbGVscy5jb20wHhcNMTYwNzE4MjAyNzA0WhcNMTcwNzE4MjAyNzA0WjBnMQsw
CQYDVQQGEwJVUzEMMAoGA1UECgwDQVBPMSEwHwYDVQQDDBhDYXJsb3MuUGFpdmFA
Zmx0cy5jb20uYnIxJzAlBgkqhkiG9w0BCQEWGENhcmxvcy5QYWl2YUBmbHRzLmNv
bS5icjCCASIwDQYJKoZIhvcNAQEBBQADggEPADCCAQoCggEBAJx5+5GeyX+WZIUo
eHDVdpwagx98jtt6tsqFcufEW6iGGzMblvPZiSQw8bGuXoA1xCiOHi7Pjw5OA49y
TRiq9FncRypjwFp9uifdx5i0t9xRViovqWNrNGXR3us/520PebBjckasd0Bn4kR2
VpU2j4OXCFbEnRDmHVHD7zhCDtBQTGPkx9ayDAyrox/K7npKlLIe5qqnvhwO45Y3
qJeJla747+I1uEWtzsX/p3QR/g8+4J/f3lC/uUaFupiJzh6czeB0DdqZ4/9AUm7Y
hYeeud8mkTqEqC/H3nxYPUYkGFtziaXBuPntp9f2rNR6i78Q4HsNbE/IEp5neSdc
/XAYq8kCAwEAAaOCAiAwggIcMAwGA1UdEwEB/wQCMAAwDgYDVR0PAQH/BAQDAgWg
MB0GA1UdDgQWBBRTU46FF8O0hgZfSP4car+z5ozKNDAfBgNVHSMEGDAWgBTQaB2X
TI1JJh6q4aAODW1HJKPlmzBABggrBgEFBQcBAQQ0MDIwMAYIKwYBBQUHMAKGJGh0
dHA6Ly93d3cuYXBzc3RhbmRhcmQub3JnL2NhL2NhLnBlbTA9BgNVHR8ENjA0MDKg
MKAuhixodHRwOi8vd3d3LmFwc3N0YW5kYXJkLm9yZy9jYS9pc3N1aW5nX2NhLmNy
bDCCASQGA1UdIASCARswggEXMIGuBg4rBgEEAYHMO4N9AgIBATCBmzA6BggrBgEF
BQcCARYuaHR0cDovL3d3dy5wYXJhbGxlbHMubmV0L2NhL3BhcmFsbGVsc19jcHMu
aHRtbDBdBggrBgEFBQcCAjBRMB8aGFBhcmFsbGVscyBIb2xkaW5ncywgbHRkLjAD
AgEBGi5FeHRlcm5hbCBCYXNpYyBDZXJ0aWZpY2F0b24gUHJhY3RpY2UgU3RhdGVt
ZW50MGQGDisGAQQBgcw7g30CAmQBMFIwUAYIKwYBBQUHAgIwRDAfGhhQYXJhbGxl
bHMgSG9sZGluZ3MsIGx0ZC4wAwIBARohQVBTIFZQTiBDbGllbnQgQ2VydGlmaWNh
dGUgUG9saWN5MBMGA1UdJQQMMAoGCCsGAQUFBwMCMA0GCSqGSIb3DQEBCwUAA4IC
AQAY63nrHALCSyIglxj2v+p5d12wT3RJJD1QjQXvdnTwY54eDxO6hzgVet3vQnin
SU3v9fltm3QNuWjnXBJho2Q+qW84N+rBiDMLLtUQ6aX578nBXtWdp2/sH5v5E8ZH
Qb+0vK6Wl8zX3+O4oFzbVHfG5GemMum7Hhd7wS8/Y7LqrrJ7zYZNfTvWm5te6LXd
1cl8XO4jJsgWJpgOCQTv+nwC5oMSALjgzFpJPCGNn5d21kU3OfmxI0Ifi1dOCz1y
Ld+N/2rS9KeKM/GkI0wntyx1l4M4gAgxuX4PRJR5XtQfClM9ih0U4zQRBfnAd84a
aZjYKfrW45D/Kzm4c4gMxJb41gH893Qbh5zRkbiUdC/8+jbl6l1nJZGINzhgE0WQ
aP6RfpGlJQRCs6Tvtvuk5p0V522DjQzzXnqiVXQcje+7ix2hJ1yBr645CB9tFCXx
5wC+3KIf1KTZ9ZAThLSeT+B2w8rfZlvUHjeorVYIaH0GD17DpKVDnNXUbl1FvA8h
nSueNyreySJWBE0RJbfYmuRYqcRVaDxaSD+Zs8U5e6Ku8M+FRGKXEO4/LOVJ1E5v
PXPQFCgYIY0WAnfuytjk9N+wXoWgV0MxjUJ1M/y/92giTxhuBjgcznL61w++z7kB
ue3fY1hjYCaGiLcimGs7MlkA+BGA7PoLc85vsEifPrjd5w==
-----END CERTIFICATE-----
