Certificate:
    Data:
        Version: 3 (0x2)
        Serial Number:
            a7:c4:f6:ae:e2:92:b8:b3
        Signature Algorithm: sha256WithRSAEncryption
        Issuer: C=RU, L=Moscow, O=Parallels Holdings Ltd, OU=APS/emailAddress=maximk@parallels.com
        Validity
            Not Before: May  4 19:53:55 2017 GMT
            Not After : May  4 19:53:55 2018 GMT
        Subject: C=US, O=Fast Lane Clouds, CN=carlosbpaiva@gmail.com/emailAddress=carlosbpaiva@gmail.com
        Subject Public Key Info:
            Public Key Algorithm: rsaEncryption
                Public-Key: (2048 bit)
                Modulus:
                    00:a3:91:75:42:92:01:89:cb:81:17:6b:7a:73:74:
                    99:c9:57:b0:b1:25:38:76:6d:78:ba:ff:6f:e9:0e:
                    53:ad:99:04:11:3e:27:15:8f:65:e2:4f:d6:5e:c7:
                    d7:07:f5:b4:f8:d9:c8:5c:fb:7a:05:ec:22:21:c3:
                    1d:0a:1b:dd:2e:82:97:7d:50:0f:6b:4c:22:20:5e:
                    88:87:fe:d0:44:9d:76:17:0b:97:b0:04:50:b2:de:
                    88:a3:e6:33:5e:d8:7f:d3:19:37:11:e7:18:d5:a2:
                    0b:19:61:e8:c4:b6:8e:a7:67:3e:c4:a8:09:86:53:
                    be:57:47:b4:f4:8a:78:78:21:44:98:d3:51:11:03:
                    4c:d9:2a:3a:78:ad:2d:51:7b:c0:99:e0:b1:d4:43:
                    d1:ca:ba:f5:f8:90:d9:13:da:39:dc:b9:1d:8c:b5:
                    5f:b3:15:05:e3:ea:1c:95:9e:a8:8f:6a:ee:8a:45:
                    80:5c:9d:a7:0f:8b:5f:4b:c9:db:9f:f9:5b:3c:fa:
                    d0:00:c5:12:a1:08:09:74:2b:32:cf:a6:24:27:31:
                    e7:77:ea:4b:1e:b2:84:7e:c4:e0:4c:ec:2d:73:b6:
                    5d:09:61:e0:50:85:14:5d:29:c7:ab:31:f8:4a:ab:
                    1d:67:40:a5:2f:64:29:fa:b5:ce:9b:90:71:86:4e:
                    e4:c5
                Exponent: 65537 (0x10001)
        X509v3 extensions:
            X509v3 Basic Constraints: critical
                CA:FALSE
            X509v3 Key Usage: critical
                Digital Signature, Key Encipherment
            X509v3 Subject Key Identifier: 
                57:DB:C5:7C:C6:53:F3:2A:18:F9:35:33:2C:D8:C0:F6:59:9C:D8:E4
            X509v3 Authority Key Identifier: 
                keyid:D0:68:1D:97:4C:8D:49:26:1E:AA:E1:A0:0E:0D:6D:47:24:A3:E5:9B

            Authority Information Access: 
                CA Issuers - URI:http://www.apsstandard.org/ca/ca.pem

            X509v3 CRL Distribution Points: 

                Full Name:
                  URI:http://www.apsstandard.org/ca/issuing_ca.crl

            X509v3 Certificate Policies: 
                Policy: parallels_ext_basicCPS
                  CPS: http://www.parallels.net/ca/parallels_cps.html
                  User Notice:
                    Organization: Parallels Holdings, ltd.
                    Number: 1
                    Explicit Text: External Basic Certificaton Practice Statement
                Policy: apsvpnclient
                  User Notice:
                    Organization: Parallels Holdings, ltd.
                    Number: 1
                    Explicit Text: APS VPN Client Certificate Policy

            X509v3 Extended Key Usage: 
                TLS Web Client Authentication
    Signature Algorithm: sha256WithRSAEncryption
        74:54:4e:66:77:82:22:ba:c4:11:77:95:87:15:c9:64:a1:c9:
        70:c2:75:c2:2b:3c:c7:db:c4:3e:65:6f:fc:b6:28:f3:49:61:
        c1:70:ac:c9:eb:41:53:e3:d3:af:97:b4:bc:3b:f0:32:0a:c8:
        e2:7b:24:2f:58:94:61:d0:97:c0:ad:9a:86:22:9a:67:07:aa:
        de:a5:2c:58:ae:f1:53:cf:a7:a5:49:40:4b:3a:da:2f:3c:99:
        c8:73:8c:03:0a:ef:62:be:4c:1e:8e:3d:d5:79:84:8b:e4:ad:
        55:f8:12:31:cf:29:68:ad:a2:47:95:7a:4b:79:87:95:35:45:
        ee:32:93:ef:12:71:99:d9:b7:78:d7:73:75:db:74:e7:15:5b:
        f5:e8:95:5c:0a:61:d9:09:66:20:2f:26:7e:0a:5e:03:58:4e:
        93:6d:e3:00:f8:04:c0:6a:82:46:80:db:9c:c5:58:38:c0:95:
        91:9a:a9:34:10:9c:43:95:18:58:4d:ea:5c:8e:bf:46:c6:a9:
        21:6d:61:4d:e4:d8:76:41:3c:43:e9:4b:cf:b6:4e:46:6e:08:
        59:96:34:cf:37:05:5f:75:d0:8b:42:e3:10:ff:13:d3:ea:08:
        a2:bc:be:c2:ae:b1:4f:01:78:bb:f0:08:0f:ab:7a:50:9f:c4:
        d3:32:9e:ef:18:71:a5:15:44:e0:a3:b5:01:6c:33:63:07:71:
        df:c1:0c:4a:e0:c4:94:38:54:41:57:77:7f:ad:ea:9d:ba:2e:
        e1:9e:72:c0:ce:2b:a9:49:cc:60:72:99:d0:1e:c0:62:bd:ad:
        f1:3f:78:d1:dc:d0:d3:3f:2a:a4:c8:06:40:be:e0:18:b7:01:
        78:a3:f5:b2:64:01:0b:34:a6:75:17:51:0a:7d:04:d4:a5:87:
        b9:5e:d6:5e:52:e9:0c:95:e6:d3:f4:ca:14:85:3c:fc:42:cb:
        6e:aa:f3:71:5a:04:a0:f1:18:f5:cb:34:05:fe:39:9a:aa:b9:
        8b:84:11:89:21:bd:75:4b:0f:be:d8:d2:ba:4c:2e:23:09:69:
        93:ad:6f:24:42:d7:20:18:d1:99:38:b4:db:a8:4e:0c:b8:aa:
        31:bb:15:95:a3:bf:46:c5:e7:d7:ac:a8:76:cc:cb:7d:15:3d:
        b7:99:d8:67:63:13:af:ff:f9:7d:67:19:87:c3:67:9f:21:55:
        7d:86:c3:1d:25:fb:18:50:28:eb:63:43:6f:2f:62:94:4e:f2:
        f3:ec:75:fe:d6:fb:77:8d:ac:e7:6f:73:26:67:2f:4a:37:12:
        a5:54:c9:22:9d:76:50:db:58:3c:01:ca:1c:eb:bb:34:8c:f1:
        4e:46:8e:e1:1e:a2:6e:58
-----BEGIN CERTIFICATE-----
MIIGhzCCBG+gAwIBAgIJAKfE9q7ikrizMA0GCSqGSIb3DQEBCwUAMHIxCzAJBgNV
BAYTAlJVMQ8wDQYDVQQHDAZNb3Njb3cxHzAdBgNVBAoMFlBhcmFsbGVscyBIb2xk
aW5ncyBMdGQxDDAKBgNVBAsMA0FQUzEjMCEGCSqGSIb3DQEJARYUbWF4aW1rQHBh
cmFsbGVscy5jb20wHhcNMTcwNTA0MTk1MzU1WhcNMTgwNTA0MTk1MzU1WjBwMQsw
CQYDVQQGEwJVUzEZMBcGA1UECgwQRmFzdCBMYW5lIENsb3VkczEfMB0GA1UEAwwW
Y2FybG9zYnBhaXZhQGdtYWlsLmNvbTElMCMGCSqGSIb3DQEJARYWY2FybG9zYnBh
aXZhQGdtYWlsLmNvbTCCASIwDQYJKoZIhvcNAQEBBQADggEPADCCAQoCggEBAKOR
dUKSAYnLgRdrenN0mclXsLElOHZteLr/b+kOU62ZBBE+JxWPZeJP1l7H1wf1tPjZ
yFz7egXsIiHDHQob3S6Cl31QD2tMIiBeiIf+0ESddhcLl7AEULLeiKPmM17Yf9MZ
NxHnGNWiCxlh6MS2jqdnPsSoCYZTvldHtPSKeHghRJjTUREDTNkqOnitLVF7wJng
sdRD0cq69fiQ2RPaOdy5HYy1X7MVBePqHJWeqI9q7opFgFydpw+LX0vJ25/5Wzz6
0ADFEqEICXQrMs+mJCcx53fqSx6yhH7E4EzsLXO2XQlh4FCFFF0px6sx+EqrHWdA
pS9kKfq1zpuQcYZO5MUCAwEAAaOCAiAwggIcMAwGA1UdEwEB/wQCMAAwDgYDVR0P
AQH/BAQDAgWgMB0GA1UdDgQWBBRX28V8xlPzKhj5NTMs2MD2WZzY5DAfBgNVHSME
GDAWgBTQaB2XTI1JJh6q4aAODW1HJKPlmzBABggrBgEFBQcBAQQ0MDIwMAYIKwYB
BQUHMAKGJGh0dHA6Ly93d3cuYXBzc3RhbmRhcmQub3JnL2NhL2NhLnBlbTA9BgNV
HR8ENjA0MDKgMKAuhixodHRwOi8vd3d3LmFwc3N0YW5kYXJkLm9yZy9jYS9pc3N1
aW5nX2NhLmNybDCCASQGA1UdIASCARswggEXMIGuBg4rBgEEAYHMO4N9AgIBATCB
mzA6BggrBgEFBQcCARYuaHR0cDovL3d3dy5wYXJhbGxlbHMubmV0L2NhL3BhcmFs
bGVsc19jcHMuaHRtbDBdBggrBgEFBQcCAjBRMB8aGFBhcmFsbGVscyBIb2xkaW5n
cywgbHRkLjADAgEBGi5FeHRlcm5hbCBCYXNpYyBDZXJ0aWZpY2F0b24gUHJhY3Rp
Y2UgU3RhdGVtZW50MGQGDisGAQQBgcw7g30CAmQBMFIwUAYIKwYBBQUHAgIwRDAf
GhhQYXJhbGxlbHMgSG9sZGluZ3MsIGx0ZC4wAwIBARohQVBTIFZQTiBDbGllbnQg
Q2VydGlmaWNhdGUgUG9saWN5MBMGA1UdJQQMMAoGCCsGAQUFBwMCMA0GCSqGSIb3
DQEBCwUAA4ICAQB0VE5md4IiusQRd5WHFclkoclwwnXCKzzH28Q+ZW/8tijzSWHB
cKzJ60FT49Ovl7S8O/AyCsjieyQvWJRh0JfArZqGIppnB6repSxYrvFTz6elSUBL
OtovPJnIc4wDCu9ivkwejj3VeYSL5K1V+BIxzyloraJHlXpLeYeVNUXuMpPvEnGZ
2bd413N123TnFVv16JVcCmHZCWYgLyZ+Cl4DWE6TbeMA+ATAaoJGgNucxVg4wJWR
mqk0EJxDlRhYTepcjr9GxqkhbWFN5Nh2QTxD6UvPtk5GbghZljTPNwVfddCLQuMQ
/xPT6giivL7CrrFPAXi78AgPq3pQn8TTMp7vGHGlFUTgo7UBbDNjB3HfwQxK4MSU
OFRBV3d/reqdui7hnnLAziupScxgcpnQHsBiva3xP3jR3NDTPyqkyAZAvuAYtwF4
o/WyZAELNKZ1F1EKfQTUpYe5XtZeUukMlebT9MoUhTz8QstuqvNxWgSg8Rj1yzQF
/jmaqrmLhBGJIb11Sw++2NK6TC4jCWmTrW8kQtcgGNGZOLTbqE4MuKoxuxWVo79G
xefXrKh2zMt9FT23mdhnYxOv//l9ZxmHw2efIVV9hsMdJfsYUCjrY0NvL2KUTvLz
7HX+1vt3jaznb3MmZy9KNxKlVMkinXZQ21g8Acoc67s0jPFORo7hHqJuWA==
-----END CERTIFICATE-----
